target datalayout = "e-m:e-p270:32:32-p271:32:32-p272:64:64-i64:64-i128:128-f80:128-n8:16:32:64-S128"
target triple = "x86_64-pc-linux-gnu"

%struct.expert_field = type { i32, i32 }

@dissector_ipv6 = internal global ptr null, align 8
@dissector_ip = internal global ptr null, align 8
@dissector_pw_ach = internal global ptr null, align 8
@hf_mpls_pw_mcw_flags = internal global i32 0, align 4
@hf_mpls_pw_mcw_length = internal global i32 0, align 4
@hf_mpls_pw_mcw_sequence_number = internal global i32 0, align 4
@ett_mpls_pw_mcw = internal global i32 0, align 4
@ei_mpls_pw_mcw_error_processing_message = internal global %struct.expert_field zeroinitializer, align 4
@proto_pw_mcw = internal global i32 0, align 4

; Function Attrs: null_pointer_is_valid sspstrong uwtable
define hidden zeroext i1 @dissect_try_cw_first_nibble(ptr noundef %0, ptr noundef %1, ptr noundef %2) #0 {
  %4 = alloca i1, align 1
  %5 = alloca ptr, align 8
  %6 = alloca ptr, align 8
  %7 = alloca ptr, align 8
  %8 = alloca i8, align 1
  %9 = alloca i32, align 4
  store ptr %0, ptr %5, align 8
  store ptr %1, ptr %6, align 8
  store ptr %2, ptr %7, align 8
  call void @llvm.lifetime.start.p0(i64 1, ptr %8) #6
  %10 = load ptr, ptr %5, align 8
  %11 = call zeroext i8 @tvb_get_uint8(ptr noundef %10, i32 noundef 0)
  %12 = zext i8 %11 to i32
  %13 = ashr i32 %12, 4
  %14 = and i32 %13, 15
  %15 = trunc i32 %14 to i8
  store i8 %15, ptr %8, align 1
  %16 = load i8, ptr %8, align 1
  %17 = zext i8 %16 to i32
  switch i32 %17, label %36 [
    i32 6, label %18
    i32 4, label %24
    i32 1, label %30
  ]

18:                                               ; preds = %3
  %19 = load ptr, ptr @dissector_ipv6, align 8
  %20 = load ptr, ptr %5, align 8
  %21 = load ptr, ptr %6, align 8
  %22 = load ptr, ptr %7, align 8
  %23 = call i32 @call_dissector(ptr noundef %19, ptr noundef %20, ptr noundef %21, ptr noundef %22)
  store i1 true, ptr %4, align 1
  store i32 1, ptr %9, align 4
  br label %38

24:                                               ; preds = %3
  %25 = load ptr, ptr @dissector_ip, align 8
  %26 = load ptr, ptr %5, align 8
  %27 = load ptr, ptr %6, align 8
  %28 = load ptr, ptr %7, align 8
  %29 = call i32 @call_dissector(ptr noundef %25, ptr noundef %26, ptr noundef %27, ptr noundef %28)
  store i1 true, ptr %4, align 1
  store i32 1, ptr %9, align 4
  br label %38

30:                                               ; preds = %3
  %31 = load ptr, ptr @dissector_pw_ach, align 8
  %32 = load ptr, ptr %5, align 8
  %33 = load ptr, ptr %6, align 8
  %34 = load ptr, ptr %7, align 8
  %35 = call i32 @call_dissector(ptr noundef %31, ptr noundef %32, ptr noundef %33, ptr noundef %34)
  store i1 true, ptr %4, align 1
  store i32 1, ptr %9, align 4
  br label %38

36:                                               ; preds = %3
  br label %37

37:                                               ; preds = %36
  store i1 false, ptr %4, align 1
  store i32 1, ptr %9, align 4
  br label %38

38:                                               ; preds = %37, %30, %24, %18
  call void @llvm.lifetime.end.p0(i64 1, ptr %8) #6
  %39 = load i1, ptr %4, align 1
  ret i1 %39
}

; Function Attrs: null_pointer_is_valid sspstrong uwtable
define internal i32 @dissect_pw_mcw(ptr noundef %0, ptr noundef %1, ptr noundef %2, ptr noundef %3) #0 {
  %5 = alloca i32, align 4
  %6 = alloca ptr, align 8
  %7 = alloca ptr, align 8
  %8 = alloca ptr, align 8
  %9 = alloca ptr, align 8
  %10 = alloca ptr, align 8
  %11 = alloca i32, align 4
  %12 = alloca ptr, align 8
  %13 = alloca ptr, align 8
  store ptr %0, ptr %6, align 8
  store ptr %1, ptr %7, align 8
  store ptr %2, ptr %8, align 8
  store ptr %3, ptr %9, align 8
  call void @llvm.lifetime.start.p0(i64 8, ptr %10) #6
  %14 = load ptr, ptr %6, align 8
  %15 = call i32 @tvb_reported_length_remaining(ptr noundef %14, i32 noundef 0)
  %16 = icmp slt i32 %15, 4
  br i1 %16, label %17, label %24

17:                                               ; preds = %4
  %18 = load ptr, ptr %8, align 8
  %19 = load ptr, ptr %7, align 8
  %20 = load ptr, ptr %6, align 8
  %21 = call ptr @proto_tree_add_expert(ptr noundef %18, ptr noundef %19, ptr noundef @ei_mpls_pw_mcw_error_processing_message, ptr noundef %20, i32 noundef 0, i32 noundef -1)
  %22 = load ptr, ptr %6, align 8
  %23 = call i32 @tvb_captured_length(ptr noundef %22)
  store i32 %23, ptr %5, align 4
  store i32 1, ptr %11, align 4
  br label %64

24:                                               ; preds = %4
  %25 = load ptr, ptr %6, align 8
  %26 = load ptr, ptr %7, align 8
  %27 = load ptr, ptr %8, align 8
  %28 = call zeroext i1 @dissect_try_cw_first_nibble(ptr noundef %25, ptr noundef %26, ptr noundef %27)
  br i1 %28, label %29, label %32

29:                                               ; preds = %24
  %30 = load ptr, ptr %6, align 8
  %31 = call i32 @tvb_captured_length(ptr noundef %30)
  store i32 %31, ptr %5, align 4
  store i32 1, ptr %11, align 4
  br label %64

32:                                               ; preds = %24
  %33 = load ptr, ptr %8, align 8
  %34 = icmp ne ptr %33, null
  br i1 %34, label %35, label %55

35:                                               ; preds = %32
  call void @llvm.lifetime.start.p0(i64 8, ptr %12) #6
  call void @llvm.lifetime.start.p0(i64 8, ptr %13) #6
  %36 = load ptr, ptr %8, align 8
  %37 = load i32, ptr @proto_pw_mcw, align 4
  %38 = load ptr, ptr %6, align 8
  %39 = call ptr @proto_tree_add_item(ptr noundef %36, i32 noundef %37, ptr noundef %38, i32 noundef 0, i32 noundef 4, i32 noundef 0)
  store ptr %39, ptr %13, align 8
  %40 = load ptr, ptr %13, align 8
  %41 = load i32, ptr @ett_mpls_pw_mcw, align 4
  %42 = call ptr @proto_item_add_subtree(ptr noundef %40, i32 noundef %41)
  store ptr %42, ptr %12, align 8
  %43 = load ptr, ptr %12, align 8
  %44 = load i32, ptr @hf_mpls_pw_mcw_flags, align 4
  %45 = load ptr, ptr %6, align 8
  %46 = call ptr @proto_tree_add_item(ptr noundef %43, i32 noundef %44, ptr noundef %45, i32 noundef 0, i32 noundef 2, i32 noundef 0)
  %47 = load ptr, ptr %12, align 8
  %48 = load i32, ptr @hf_mpls_pw_mcw_length, align 4
  %49 = load ptr, ptr %6, align 8
  %50 = call ptr @proto_tree_add_item(ptr noundef %47, i32 noundef %48, ptr noundef %49, i32 noundef 1, i32 noundef 1, i32 noundef 0)
  %51 = load ptr, ptr %12, align 8
  %52 = load i32, ptr @hf_mpls_pw_mcw_sequence_number, align 4
  %53 = load ptr, ptr %6, align 8
  %54 = call ptr @proto_tree_add_item(ptr noundef %51, i32 noundef %52, ptr noundef %53, i32 noundef 2, i32 noundef 2, i32 noundef 0)
  call void @llvm.lifetime.end.p0(i64 8, ptr %13) #6
  call void @llvm.lifetime.end.p0(i64 8, ptr %12) #6
  br label %55

55:                                               ; preds = %35, %32
  %56 = load ptr, ptr %6, align 8
  %57 = call ptr @tvb_new_subset_remaining(ptr noundef %56, i32 noundef 4)
  store ptr %57, ptr %10, align 8
  %58 = load ptr, ptr %10, align 8
  %59 = load ptr, ptr %7, align 8
  %60 = load ptr, ptr %8, align 8
  %61 = call i32 @call_data_dissector(ptr noundef %58, ptr noundef %59, ptr noundef %60)
  %62 = load ptr, ptr %6, align 8
  %63 = call i32 @tvb_captured_length(ptr noundef %62)
  store i32 %63, ptr %5, align 4
  store i32 1, ptr %11, align 4
  br label %64

64:                                               ; preds = %55, %29, %17
  call void @llvm.lifetime.end.p0(i64 8, ptr %10) #6
  %65 = load i32, ptr %5, align 4
  ret i32 %65
}