; Function Attrs: null_pointer_is_valid sspstrong uwtable
define internal i32 @dissect_pw_mcw(ptr noundef %0, ptr noundef %1, ptr noundef %2, ptr readnone captures(none) %3) #0 {
  %5 = tail call i32 @tvb_reported_length_remaining(ptr noundef %0, i32 noundef 0)
  %6 = icmp slt i32 %5, 4
  br i1 %6, label %7, label %9

7:                                                ; preds = %4
  %8 = tail call ptr @proto_tree_add_expert(ptr noundef %2, ptr noundef %1, ptr noundef nonnull @ei_mpls_pw_mcw_error_processing_message, ptr noundef %0, i32 noundef 0, i32 noundef -1)
  br label %31

9:                                                ; preds = %4
  %10 = tail call zeroext i8 @tvb_get_uint8(ptr noundef %0, i32 noundef 0)
  %11 = lshr i8 %10, 4
  switch i8 %11, label %dissect_try_cw_first_nibble.exit [
    i8 6, label %14
    i8 4, label %12
    i8 1, label %13
  ]

12:                                               ; preds = %9
  br label %14

13:                                               ; preds = %9
  br label %14

14:                                               ; preds = %9, %12, %13
  %dissector_pw_ach.sink.i = phi ptr [ @dissector_pw_ach, %13 ], [ @dissector_ip, %12 ], [ @dissector_ipv6, %9 ]
  %15 = load ptr, ptr %dissector_pw_ach.sink.i, align 8
  %16 = tail call i32 @call_dissector(ptr noundef %15, ptr noundef %0, ptr noundef %1, ptr noundef %2)
  br label %31

dissect_try_cw_first_nibble.exit:                 ; preds = %9
  %.not = icmp eq ptr %2, null
  br i1 %.not, label %28, label %17

17:                                               ; preds = %dissect_try_cw_first_nibble.exit
  %18 = load i32, ptr @proto_pw_mcw, align 4
  %19 = tail call ptr @proto_tree_add_item(ptr noundef nonnull %2, i32 noundef %18, ptr noundef %0, i32 noundef 0, i32 noundef 4, i32 noundef 0)
  %20 = load i32, ptr @ett_mpls_pw_mcw, align 4
  %21 = tail call ptr @proto_item_add_subtree(ptr noundef %19, i32 noundef %20)
  %22 = load i32, ptr @hf_mpls_pw_mcw_flags, align 4
  %23 = tail call ptr @proto_tree_add_item(ptr noundef %21, i32 noundef %22, ptr noundef %0, i32 noundef 0, i32 noundef 2, i32 noundef 0)
  %24 = load i32, ptr @hf_mpls_pw_mcw_length, align 4
  %25 = tail call ptr @proto_tree_add_item(ptr noundef %21, i32 noundef %24, ptr noundef %0, i32 noundef 1, i32 noundef 1, i32 noundef 0)
  %26 = load i32, ptr @hf_mpls_pw_mcw_sequence_number, align 4
  %27 = tail call ptr @proto_tree_add_item(ptr noundef %21, i32 noundef %26, ptr noundef %0, i32 noundef 2, i32 noundef 2, i32 noundef 0)
  br label %28

28:                                               ; preds = %17, %dissect_try_cw_first_nibble.exit
  %29 = tail call ptr @tvb_new_subset_remaining(ptr noundef %0, i32 noundef 4)
  %30 = tail call i32 @call_data_dissector(ptr noundef %29, ptr noundef %1, ptr noundef %2)
  br label %31

31:                                               ; preds = %28, %14, %7
  %32 = tail call i32 @tvb_captured_length(ptr noundef %0)
  ret i32 %32
}